	.file	"fib.cc"
	.option pic
	.attribute arch, "rv64i2p1"
	.attribute unaligned_access, 0
	.attribute stack_align, 16
	.text
	.align	2
	.globl	_Z19fibonacci_recursivei
	.type	_Z19fibonacci_recursivei, @function
_Z19fibonacci_recursivei:
.LFB0:
	.cfi_startproc
	addi	sp,sp,-48
	.cfi_def_cfa_offset 48
	sd	ra,40(sp)
	sd	s0,32(sp)
	sd	s1,24(sp)
	.cfi_offset 1, -8
	.cfi_offset 8, -16
	.cfi_offset 9, -24
	addi	s0,sp,48
	.cfi_def_cfa 8, 0
	mv	a5,a0
	sw	a5,-36(s0)
	lw	a5,-36(s0)
	sext.w	a4,a5
	li	a5,1
	bgt	a4,a5,.L2
	li	a5,1
	j	.L3
.L2:
	lw	a5,-36(s0)
	addiw	a5,a5,-1
	sext.w	a5,a5
	mv	a0,a5
	call	_Z19fibonacci_recursivei
	mv	a5,a0
	mv	s1,a5
	lw	a5,-36(s0)
	addiw	a5,a5,-2
	sext.w	a5,a5
	mv	a0,a5
	call	_Z19fibonacci_recursivei
	mv	a5,a0
	addw	a5,s1,a5
	sext.w	a5,a5
.L3:
	mv	a0,a5
	ld	ra,40(sp)
	.cfi_restore 1
	ld	s0,32(sp)
	.cfi_restore 8
	.cfi_def_cfa 2, 48
	ld	s1,24(sp)
	.cfi_restore 9
	addi	sp,sp,48
	.cfi_def_cfa_offset 0
	jr	ra
	.cfi_endproc
.LFE0:
	.size	_Z19fibonacci_recursivei, .-_Z19fibonacci_recursivei
	.align	2
	.globl	main
	.type	main, @function
main:
.LFB1:
	.cfi_startproc
	addi	sp,sp,-16
	.cfi_def_cfa_offset 16
	sd	ra,8(sp)
	sd	s0,0(sp)
	.cfi_offset 1, -8
	.cfi_offset 8, -16
	addi	s0,sp,16
	.cfi_def_cfa 8, 0
	li	a0,7
	call	_Z19fibonacci_recursivei
	mv	a5,a0
	nop
	mv	a0,a5
	ld	ra,8(sp)
	.cfi_restore 1
	ld	s0,0(sp)
	.cfi_restore 8
	.cfi_def_cfa 2, 16
	addi	sp,sp,16
	.cfi_def_cfa_offset 0
	jr	ra
	.cfi_endproc
.LFE1:
	.size	main, .-main
	.ident	"GCC: (Ubuntu 13.2.0-23ubuntu4) 13.2.0"
	.section	.note.GNU-stack,"",@progbits
